target datalayout = "e-m:e-p270:32:32-p271:32:32-p272:64:64-i64:64-i128:128-f80:128-n8:16:32:64-S128"
target triple = "x86_64-pc-linux-gnu"

%struct.stat = type { i64, i64, i64, i32, i32, i32, i32, i64, i64, i64, i64, %struct.timespec, %struct.timespec, %struct.timespec, [3 x i64] }
%struct.timespec = type { i64, i64 }

; Function Attrs: nounwind uwtable
define zeroext i1 @pmix_fd_is_regular(i32 noundef %0) #0 {
  %2 = alloca i1, align 1
  %3 = alloca i32, align 4
  %4 = alloca %struct.stat, align 8
  %5 = alloca i32, align 4
  store i32 %0, ptr %3, align 4, !tbaa !3
  call void @llvm.lifetime.start.p0(i64 144, ptr %4) #6
  %6 = load i32, ptr %3, align 4, !tbaa !3
  %7 = call i32 @fstat(i32 noundef %6, ptr noundef %4) #6
  %8 = icmp ne i32 %7, 0
  br i1 %8, label %9, label %10

9:                                                ; preds = %1
  store i1 false, ptr %2, align 1
  store i32 1, ptr %5, align 4
  br label %15

10:                                               ; preds = %1
  %11 = getelementptr inbounds nuw %struct.stat, ptr %4, i32 0, i32 3
  %12 = load i32, ptr %11, align 8, !tbaa !14
  %13 = and i32 %12, 61440
  %14 = icmp eq i32 %13, 32768
  store i1 %14, ptr %2, align 1
  store i32 1, ptr %5, align 4
  br label %15

15:                                               ; preds = %10, %9
  call void @llvm.lifetime.end.p0(i64 144, ptr %4) #6
  %16 = load i1, ptr %2, align 1
  ret i1 %16
}